target datalayout = "e-m:e-p270:32:32-p271:32:32-p272:64:64-i64:64-i128:128-f80:128-n8:16:32:64-S128"
target triple = "x86_64-pc-linux-gnu"

%struct.luaL_Reg = type { ptr, ptr }

@.str = private unnamed_addr constant [9 x i8] c"_LOADLIB\00", align 1
@.str.1 = private unnamed_addr constant [5 x i8] c"__gc\00", align 1
@.str.2 = private unnamed_addr constant [8 x i8] c"package\00", align 1
@package_lib = internal constant [4 x %struct.luaL_Reg] [%struct.luaL_Reg { ptr @.str.17, ptr @lj_cf_package_loadlib }, %struct.luaL_Reg { ptr @.str.18, ptr @lj_cf_package_searchpath }, %struct.luaL_Reg { ptr @.str.19, ptr @lj_cf_package_seeall }, %struct.luaL_Reg zeroinitializer], align 16
@package_loaders = internal constant [5 x ptr] [ptr @lj_cf_package_loader_preload, ptr @lj_cf_package_loader_lua, ptr @lj_cf_package_loader_c, ptr @lj_cf_package_loader_croot, ptr null], align 16
@.str.3 = private unnamed_addr constant [8 x i8] c"loaders\00", align 1
@.str.4 = private unnamed_addr constant [10 x i8] c"LUA_NOENV\00", align 1
@.str.5 = private unnamed_addr constant [5 x i8] c"path\00", align 1
@.str.6 = private unnamed_addr constant [9 x i8] c"LUA_PATH\00", align 1
@.str.7 = private unnamed_addr constant [109 x i8] c"./?.lua;/usr/local/share/luajit-2.1/?.lua;/usr/local/share/lua/5.1/?.lua;/usr/local/share/lua/5.1/?/init.lua\00", align 1
@.str.8 = private unnamed_addr constant [6 x i8] c"cpath\00", align 1
@.str.9 = private unnamed_addr constant [10 x i8] c"LUA_CPATH\00", align 1
@.str.10 = private unnamed_addr constant [69 x i8] c"./?.so;/usr/local/lib/lua/5.1/?.so;/usr/local/lib/lua/5.1/loadall.so\00", align 1
@.str.11 = private unnamed_addr constant [11 x i8] c"/\0A;\0A?\0A!\0A-\0A\00", align 1
@.str.12 = private unnamed_addr constant [7 x i8] c"config\00", align 1
@.str.13 = private unnamed_addr constant [8 x i8] c"_LOADED\00", align 1
@.str.14 = private unnamed_addr constant [7 x i8] c"loaded\00", align 1
@.str.15 = private unnamed_addr constant [9 x i8] c"_PRELOAD\00", align 1
@.str.16 = private unnamed_addr constant [8 x i8] c"preload\00", align 1
@package_global = internal constant [3 x %struct.luaL_Reg] [%struct.luaL_Reg { ptr @.str.43, ptr @lj_cf_package_module }, %struct.luaL_Reg { ptr @.str.44, ptr @lj_cf_package_require }, %struct.luaL_Reg zeroinitializer], align 16
@.str.40 = private unnamed_addr constant [3 x i8] c";;\00", align 1
@.str.41 = private unnamed_addr constant [4 x i8] c";\01;\00", align 1
@.str.42 = private unnamed_addr constant [2 x i8] c"\01\00", align 1

; Function Attrs: nounwind uwtable
define internal void @setpath(ptr noundef %0, ptr noundef %1, ptr noundef %2, ptr noundef %3, i32 noundef %4) #0 {
  %6 = alloca ptr, align 8
  %7 = alloca ptr, align 8
  %8 = alloca ptr, align 8
  %9 = alloca ptr, align 8
  %10 = alloca i32, align 4
  %11 = alloca ptr, align 8
  store ptr %0, ptr %6, align 8, !tbaa !4
  store ptr %1, ptr %7, align 8, !tbaa !14
  store ptr %2, ptr %8, align 8, !tbaa !14
  store ptr %3, ptr %9, align 8, !tbaa !14
  store i32 %4, ptr %10, align 4, !tbaa !9
  call void @llvm.lifetime.start.p0(i64 8, ptr %11) #5
  %12 = load ptr, ptr %8, align 8, !tbaa !14
  %13 = call ptr @getenv(ptr noundef %12) #5
  store ptr %13, ptr %11, align 8, !tbaa !14
  %14 = load ptr, ptr %11, align 8, !tbaa !14
  %15 = icmp eq ptr %14, null
  br i1 %15, label %19, label %16

16:                                               ; preds = %5
  %17 = load i32, ptr %10, align 4, !tbaa !9
  %18 = icmp ne i32 %17, 0
  br i1 %18, label %19, label %22

19:                                               ; preds = %16, %5
  %20 = load ptr, ptr %6, align 8, !tbaa !4
  %21 = load ptr, ptr %9, align 8, !tbaa !14
  call void @lua_pushstring(ptr noundef %20, ptr noundef %21)
  br label %31

22:                                               ; preds = %16
  %23 = load ptr, ptr %6, align 8, !tbaa !4
  %24 = load ptr, ptr %11, align 8, !tbaa !14
  %25 = call ptr @luaL_gsub(ptr noundef %23, ptr noundef %24, ptr noundef @.str.40, ptr noundef @.str.41)
  store ptr %25, ptr %11, align 8, !tbaa !14
  %26 = load ptr, ptr %6, align 8, !tbaa !4
  %27 = load ptr, ptr %11, align 8, !tbaa !14
  %28 = load ptr, ptr %9, align 8, !tbaa !14
  %29 = call ptr @luaL_gsub(ptr noundef %26, ptr noundef %27, ptr noundef @.str.42, ptr noundef %28)
  %30 = load ptr, ptr %6, align 8, !tbaa !4
  call void @lua_remove(ptr noundef %30, i32 noundef -2)
  br label %31

31:                                               ; preds = %22, %19
  %32 = load ptr, ptr %6, align 8, !tbaa !4
  %33 = load ptr, ptr %7, align 8, !tbaa !14
  call void @lua_setfield(ptr noundef %32, i32 noundef -2, ptr noundef %33)
  call void @llvm.lifetime.end.p0(i64 8, ptr %11) #5
  ret void
}

; Function Attrs: nounwind uwtable
define dso_local i32 @luaopen_package(ptr noundef %0) #0 {
  %2 = alloca ptr, align 8
  %3 = alloca i32, align 4
  %4 = alloca i32, align 4
  store ptr %0, ptr %2, align 8, !tbaa !4
  call void @llvm.lifetime.start.p0(i64 4, ptr %3) #5
  call void @llvm.lifetime.start.p0(i64 4, ptr %4) #5
  %5 = load ptr, ptr %2, align 8, !tbaa !4
  %6 = call i32 @luaL_newmetatable(ptr noundef %5, ptr noundef @.str)
  %7 = load ptr, ptr %2, align 8, !tbaa !4
  %8 = call ptr @lj_lib_pushcc(ptr noundef %7, ptr noundef @lj_cf_package_unloadlib, i32 noundef 1, i32 noundef 0)
  %9 = load ptr, ptr %2, align 8, !tbaa !4
  call void @lua_setfield(ptr noundef %9, i32 noundef -2, ptr noundef @.str.1)
  %10 = load ptr, ptr %2, align 8, !tbaa !4
  call void @luaL_register(ptr noundef %10, ptr noundef @.str.2, ptr noundef @package_lib)
  %11 = load ptr, ptr %2, align 8, !tbaa !4
  call void @lua_copy(ptr noundef %11, i32 noundef -1, i32 noundef -10001)
  %12 = load ptr, ptr %2, align 8, !tbaa !4
  call void @lua_createtable(ptr noundef %12, i32 noundef 4, i32 noundef 0)
  store i32 0, ptr %3, align 4, !tbaa !9
  br label %13

13:                                               ; preds = %29, %1
  %14 = load i32, ptr %3, align 4, !tbaa !9
  %15 = sext i32 %14 to i64
  %16 = getelementptr inbounds [5 x ptr], ptr @package_loaders, i64 0, i64 %15
  %17 = load ptr, ptr %16, align 8, !tbaa !11
  %18 = icmp ne ptr %17, null
  br i1 %18, label %19, label %32

19:                                               ; preds = %13
  %20 = load ptr, ptr %2, align 8, !tbaa !4
  %21 = load i32, ptr %3, align 4, !tbaa !9
  %22 = sext i32 %21 to i64
  %23 = getelementptr inbounds [5 x ptr], ptr @package_loaders, i64 0, i64 %22
  %24 = load ptr, ptr %23, align 8, !tbaa !11
  %25 = call ptr @lj_lib_pushcc(ptr noundef %20, ptr noundef %24, i32 noundef 1, i32 noundef 0)
  %26 = load ptr, ptr %2, align 8, !tbaa !4
  %27 = load i32, ptr %3, align 4, !tbaa !9
  %28 = add nsw i32 %27, 1
  call void @lua_rawseti(ptr noundef %26, i32 noundef -2, i32 noundef %28)
  br label %29

29:                                               ; preds = %19
  %30 = load i32, ptr %3, align 4, !tbaa !9
  %31 = add nsw i32 %30, 1
  store i32 %31, ptr %3, align 4, !tbaa !9
  br label %13, !llvm.loop !12

32:                                               ; preds = %13
  %33 = load ptr, ptr %2, align 8, !tbaa !4
  call void @lua_setfield(ptr noundef %33, i32 noundef -2, ptr noundef @.str.3)
  %34 = load ptr, ptr %2, align 8, !tbaa !4
  call void @lua_getfield(ptr noundef %34, i32 noundef -10000, ptr noundef @.str.4)
  %35 = load ptr, ptr %2, align 8, !tbaa !4
  %36 = call i32 @lua_toboolean(ptr noundef %35, i32 noundef -1)
  store i32 %36, ptr %4, align 4, !tbaa !9
  %37 = load ptr, ptr %2, align 8, !tbaa !4
  call void @lua_settop(ptr noundef %37, i32 noundef -2)
  %38 = load ptr, ptr %2, align 8, !tbaa !4
  %39 = load i32, ptr %4, align 4, !tbaa !9
  call void @setpath(ptr noundef %38, ptr noundef @.str.5, ptr noundef @.str.6, ptr noundef @.str.7, i32 noundef %39)
  %40 = load ptr, ptr %2, align 8, !tbaa !4
  %41 = load i32, ptr %4, align 4, !tbaa !9
  call void @setpath(ptr noundef %40, ptr noundef @.str.8, ptr noundef @.str.9, ptr noundef @.str.10, i32 noundef %41)
  %42 = load ptr, ptr %2, align 8, !tbaa !4
  call void @lua_pushlstring(ptr noundef %42, ptr noundef @.str.11, i64 noundef 10)
  %43 = load ptr, ptr %2, align 8, !tbaa !4
  call void @lua_setfield(ptr noundef %43, i32 noundef -2, ptr noundef @.str.12)
  %44 = load ptr, ptr %2, align 8, !tbaa !4
  %45 = call ptr @luaL_findtable(ptr noundef %44, i32 noundef -10000, ptr noundef @.str.13, i32 noundef 16)
  %46 = load ptr, ptr %2, align 8, !tbaa !4
  call void @lua_setfield(ptr noundef %46, i32 noundef -2, ptr noundef @.str.14)
  %47 = load ptr, ptr %2, align 8, !tbaa !4
  %48 = call ptr @luaL_findtable(ptr noundef %47, i32 noundef -10000, ptr noundef @.str.15, i32 noundef 4)
  %49 = load ptr, ptr %2, align 8, !tbaa !4
  call void @lua_setfield(ptr noundef %49, i32 noundef -2, ptr noundef @.str.16)
  %50 = load ptr, ptr %2, align 8, !tbaa !4
  call void @lua_pushvalue(ptr noundef %50, i32 noundef -10002)
  %51 = load ptr, ptr %2, align 8, !tbaa !4
  call void @luaL_register(ptr noundef %51, ptr noundef null, ptr noundef @package_global)
  %52 = load ptr, ptr %2, align 8, !tbaa !4
  call void @lua_settop(ptr noundef %52, i32 noundef -2)
  call void @llvm.lifetime.end.p0(i64 4, ptr %4) #5
  call void @llvm.lifetime.end.p0(i64 4, ptr %3) #5
  ret i32 1
}