; Function Attrs: nounwind uwtable
define dso_local noundef i32 @luaopen_package(ptr noundef %0) local_unnamed_addr #0 {
  %2 = tail call i32 @luaL_newmetatable(ptr noundef %0, ptr noundef nonnull @.str) #7
  %3 = tail call ptr @lj_lib_pushcc(ptr noundef %0, ptr noundef nonnull @lj_cf_package_unloadlib, i32 noundef 1, i32 noundef 0) #7
  tail call void @lua_setfield(ptr noundef %0, i32 noundef -2, ptr noundef nonnull @.str.1) #7
  tail call void @luaL_register(ptr noundef %0, ptr noundef nonnull @.str.2, ptr noundef nonnull @package_lib) #7
  tail call void @lua_copy(ptr noundef %0, i32 noundef -1, i32 noundef -10001) #7
  tail call void @lua_createtable(ptr noundef %0, i32 noundef 4, i32 noundef 0) #7
  br label %4

4:                                                ; preds = %1, %4
  %indvars.iv = phi i64 [ 0, %1 ], [ %indvars.iv.next, %4 ]
  %5 = getelementptr inbounds nuw [5 x ptr], ptr @package_loaders, i64 0, i64 %indvars.iv
  %6 = load ptr, ptr %5, align 8, !tbaa !4
  %7 = tail call ptr @lj_lib_pushcc(ptr noundef %0, ptr noundef %6, i32 noundef 1, i32 noundef 0) #7
  %indvars.iv.next = add nuw nsw i64 %indvars.iv, 1
  %8 = trunc nuw nsw i64 %indvars.iv.next to i32
  tail call void @lua_rawseti(ptr noundef %0, i32 noundef -2, i32 noundef %8) #7
  %.not = icmp eq i64 %indvars.iv.next, 4
  br i1 %.not, label %9, label %4, !llvm.loop !8

9:                                                ; preds = %4
  tail call void @lua_setfield(ptr noundef %0, i32 noundef -2, ptr noundef nonnull @.str.3) #7
  tail call void @lua_getfield(ptr noundef %0, i32 noundef -10000, ptr noundef nonnull @.str.4) #7
  %10 = tail call i32 @lua_toboolean(ptr noundef %0, i32 noundef -1) #7
  tail call void @lua_settop(ptr noundef %0, i32 noundef -2) #7
  %11 = tail call ptr @getenv(ptr noundef nonnull @.str.6) #7
  %12 = icmp eq ptr %11, null
  %13 = icmp ne i32 %10, 0
  %or.cond.i = or i1 %13, %12
  br i1 %or.cond.i, label %14, label %15

14:                                               ; preds = %9
  tail call void @lua_pushstring(ptr noundef %0, ptr noundef nonnull @.str.7) #7
  br label %setpath.exit

15:                                               ; preds = %9
  %16 = tail call ptr @luaL_gsub(ptr noundef %0, ptr noundef nonnull %11, ptr noundef nonnull @.str.40, ptr noundef nonnull @.str.41) #7
  %17 = tail call ptr @luaL_gsub(ptr noundef %0, ptr noundef %16, ptr noundef nonnull @.str.42, ptr noundef nonnull @.str.7) #7
  tail call void @lua_remove(ptr noundef %0, i32 noundef -2) #7
  br label %setpath.exit

setpath.exit:                                     ; preds = %14, %15
  tail call void @lua_setfield(ptr noundef %0, i32 noundef -2, ptr noundef nonnull @.str.5) #7
  %18 = tail call ptr @getenv(ptr noundef nonnull @.str.9) #7
  %19 = icmp eq ptr %18, null
  %or.cond.i29 = or i1 %13, %19
  br i1 %or.cond.i29, label %20, label %21

20:                                               ; preds = %setpath.exit
  tail call void @lua_pushstring(ptr noundef %0, ptr noundef nonnull @.str.10) #7
  br label %setpath.exit30

21:                                               ; preds = %setpath.exit
  %22 = tail call ptr @luaL_gsub(ptr noundef %0, ptr noundef nonnull %18, ptr noundef nonnull @.str.40, ptr noundef nonnull @.str.41) #7
  %23 = tail call ptr @luaL_gsub(ptr noundef %0, ptr noundef %22, ptr noundef nonnull @.str.42, ptr noundef nonnull @.str.10) #7
  tail call void @lua_remove(ptr noundef %0, i32 noundef -2) #7
  br label %setpath.exit30

setpath.exit30:                                   ; preds = %20, %21
  tail call void @lua_setfield(ptr noundef %0, i32 noundef -2, ptr noundef nonnull @.str.8) #7
  tail call void @lua_pushlstring(ptr noundef %0, ptr noundef nonnull @.str.11, i64 noundef 10) #7
  tail call void @lua_setfield(ptr noundef %0, i32 noundef -2, ptr noundef nonnull @.str.12) #7
  %24 = tail call ptr @luaL_findtable(ptr noundef %0, i32 noundef -10000, ptr noundef nonnull @.str.13, i32 noundef 16) #7
  tail call void @lua_setfield(ptr noundef %0, i32 noundef -2, ptr noundef nonnull @.str.14) #7
  %25 = tail call ptr @luaL_findtable(ptr noundef %0, i32 noundef -10000, ptr noundef nonnull @.str.15, i32 noundef 4) #7
  tail call void @lua_setfield(ptr noundef %0, i32 noundef -2, ptr noundef nonnull @.str.16) #7
  tail call void @lua_pushvalue(ptr noundef %0, i32 noundef -10002) #7
  tail call void @luaL_register(ptr noundef %0, ptr noundef null, ptr noundef nonnull @package_global) #7
  tail call void @lua_settop(ptr noundef %0, i32 noundef -2) #7
  ret i32 1
}